ccopy_reg
_reconstructor
p1
(csklearn.pipeline
Pipeline
p2
c__builtin__
object
p3
NtRp4
(dp5
S'steps'
p6
(lp7
(S'scale'
p8
g1
(csklearn.preprocessing.data
MinMaxScaler
p9
g3
NtRp10
(dp11
S'copy'
p12
I01
sS'feature_range'
p13
(I0
I1
tp14
sbtp15
a(S'classifier'
p16
g1
(csklearn.tree.tree
DecisionTreeClassifier
p17
g3
NtRp18
(dp19
S'splitter'
p20
S'best'
p21
sS'tree_'
p22
NsS'n_features_'
p23
NsS'n_outputs_'
p24
NsS'n_classes_'
p25
NsS'random_state'
p26
I13
sS'classes_'
p27
NsS'max_features_'
p28
NsS'min_samples_leaf'
p29
I2
sS'max_features'
p30
NsS'min_weight_fraction_leaf'
p31
I0
sS'criterion'
p32
S'entropy'
p33
sS'max_leaf_nodes'
p34
NsS'min_samples_split'
p35
I2
sS'max_depth'
p36
I3
sS'class_weight'
p37
(dp38
I0
F0.29999999999999999
sI1
F0.80000000000000004
ssbtp39
asS'named_steps'
p40
(dp41
g8
g10
sg16
g18
ssb.