ccopy_reg
_reconstructor
p1
(csklearn.pipeline
Pipeline
p2
c__builtin__
object
p3
NtRp4
(dp5
S'steps'
p6
(lp7
(S'scale'
p8
g1
(csklearn.preprocessing.data
MinMaxScaler
p9
g3
NtRp10
(dp11
S'copy'
p12
I01
sS'feature_range'
p13
(I0
I1
tp14
sbtp15
a(S'classifier'
p16
g1
(csklearn.ensemble.weight_boosting
AdaBoostClassifier
p17
g3
NtRp18
(dp19
S'base_estimator'
p20
g1
(csklearn.tree.tree
DecisionTreeClassifier
p21
g3
NtRp22
(dp23
S'splitter'
p24
S'best'
p25
sS'tree_'
p26
NsS'n_features_'
p27
NsS'n_outputs_'
p28
NsS'n_classes_'
p29
NsS'random_state'
p30
I13
sS'classes_'
p31
NsS'max_features_'
p32
NsS'min_samples_leaf'
p33
I1
sS'max_features'
p34
S'auto'
p35
sS'min_weight_fraction_leaf'
p36
F0
sS'criterion'
p37
S'entropy'
p38
sS'max_leaf_nodes'
p39
NsS'min_samples_split'
p40
I2
sS'max_depth'
p41
NsS'class_weight'
p42
NsbsS'estimators_'
p43
(lp44
sS'algorithm'
p45
S'SAMME.R'
p46
sS'learning_rate'
p47
F0.10000000000000001
sS'n_estimators'
p48
I10
sg30
I13
sS'estimator_params'
p49
(tsbtp50
asS'named_steps'
p51
(dp52
g8
g10
sg16
g18
ssb.