(lp0
S'poi'
p1
aS'bonus'
p2
aS'salary'
p3
aS'deferral_payments'
p4
aS'deferred_income'
p5
aS'director_fees'
p6
aS'exercised_stock_options'
p7
aS'expenses'
p8
aS'from_poi_to_this_person_ratio'
p9
aS'from_this_person_to_poi_ratio'
p10
aS'loan_advances'
p11
aS'long_term_incentive'
p12
aS'other'
p13
aS'restricted_stock'
p14
aS'restricted_stock_deferred'
p15
ag3
aS'shared_receipt_with_poi'
p16
a.